; Function Attrs: nounwind uwtable
define internal noundef i32 @epoch_ctl(ptr noundef %tsd, ptr nocapture readnone %mib, i64 %miblen, ptr noundef writeonly %oldp, ptr noundef %oldlenp, ptr noundef readnone %newp, i64 noundef %newlen) #0 {
entry:
  %call.i.i = tail call i32 @pthread_mutex_trylock(ptr noundef nonnull getelementptr inbounds (%struct.malloc_mutex_s, ptr @ctl_mtx, i64 0, i32 0, i32 0, i32 1, i32 0, i32 0)) #14
  %cmp.i.not.i = icmp eq i32 %call.i.i, 0
  br i1 %cmp.i.not.i, label %if.end.i, label %if.then.i

if.then.i:                                        ; preds = %entry
  tail call void @malloc_mutex_lock_slow(ptr noundef nonnull @ctl_mtx) #14
  store atomic i8 1, ptr getelementptr inbounds (%struct.malloc_mutex_s, ptr @ctl_mtx, i64 0, i32 0, i32 0, i32 2, i32 0) monotonic, align 8
  br label %if.end.i

if.end.i:                                         ; preds = %if.then.i, %entry
  %0 = load i64, ptr getelementptr inbounds (%struct.malloc_mutex_s, ptr @ctl_mtx, i64 0, i32 0, i32 0, i32 0, i32 8), align 8
  %inc.i.i = add i64 %0, 1
  store i64 %inc.i.i, ptr getelementptr inbounds (%struct.malloc_mutex_s, ptr @ctl_mtx, i64 0, i32 0, i32 0, i32 0, i32 8), align 8
  %1 = load ptr, ptr getelementptr inbounds (%struct.malloc_mutex_s, ptr @ctl_mtx, i64 0, i32 0, i32 0, i32 0, i32 7), align 8
  %cmp.not.i.i = icmp eq ptr %1, %tsd
  br i1 %cmp.not.i.i, label %malloc_mutex_lock.exit, label %if.then.i.i

if.then.i.i:                                      ; preds = %if.end.i
  store ptr %tsd, ptr getelementptr inbounds (%struct.malloc_mutex_s, ptr @ctl_mtx, i64 0, i32 0, i32 0, i32 0, i32 7), align 8
  %2 = load i64, ptr getelementptr inbounds (%struct.malloc_mutex_s, ptr @ctl_mtx, i64 0, i32 0, i32 0, i32 0, i32 6), align 8
  %inc2.i.i = add i64 %2, 1
  store i64 %inc2.i.i, ptr getelementptr inbounds (%struct.malloc_mutex_s, ptr @ctl_mtx, i64 0, i32 0, i32 0, i32 0, i32 6), align 8
  br label %malloc_mutex_lock.exit

malloc_mutex_lock.exit:                           ; preds = %if.end.i, %if.then.i.i
  %cmp.not = icmp eq ptr %newp, null
  br i1 %cmp.not, label %do.body8, label %if.then

if.then:                                          ; preds = %malloc_mutex_lock.exit
  %cmp1.not = icmp eq i64 %newlen, 8
  br i1 %cmp1.not, label %if.then5, label %label_return

if.then5:                                         ; preds = %if.then
  tail call fastcc void @ctl_refresh(ptr noundef %tsd)
  br label %do.body8

do.body8:                                         ; preds = %malloc_mutex_lock.exit, %if.then5
  %cmp9 = icmp ne ptr %oldp, null
  %cmp10 = icmp ne ptr %oldlenp, null
  %or.cond = and i1 %cmp9, %cmp10
  br i1 %or.cond, label %if.then11, label %label_return

if.then11:                                        ; preds = %do.body8
  %3 = load i64, ptr %oldlenp, align 8
  %cmp12.not = icmp eq i64 %3, 8
  br i1 %cmp12.not, label %if.end15, label %if.then13

if.then13:                                        ; preds = %if.then11
  %spec.select = tail call i64 @llvm.umin.i64(i64 %3, i64 8)
  %4 = load ptr, ptr @ctl_arenas, align 8
  tail call void @llvm.memcpy.p0.p0.i64(ptr nonnull align 1 %oldp, ptr align 1 %4, i64 %spec.select, i1 false)
  store i64 %spec.select, ptr %oldlenp, align 8
  br label %label_return

if.end15:                                         ; preds = %if.then11
  %5 = load ptr, ptr @ctl_arenas, align 8
  %6 = load i64, ptr %5, align 8
  store i64 %6, ptr %oldp, align 8
  br label %label_return

label_return:                                     ; preds = %if.end15, %do.body8, %if.then, %if.then13
  %ret.0 = phi i32 [ 22, %if.then13 ], [ 22, %if.then ], [ 0, %do.body8 ], [ 0, %if.end15 ]
  store atomic i8 0, ptr getelementptr inbounds (%struct.malloc_mutex_s, ptr @ctl_mtx, i64 0, i32 0, i32 0, i32 2, i32 0) monotonic, align 8
  %call1.i = tail call i32 @pthread_mutex_unlock(ptr noundef nonnull getelementptr inbounds (%struct.malloc_mutex_s, ptr @ctl_mtx, i64 0, i32 0, i32 0, i32 1, i32 0, i32 0)) #14
  ret i32 %ret.0
}